target datalayout = "e-m:e-p270:32:32-p271:32:32-p272:64:64-i64:64-i128:128-f80:128-n8:16:32:64-S128"
target triple = "x86_64-pc-linux-gnu"

@.str.3 = private unnamed_addr constant [2 x i8] c"\0A\00", align 1
@.str.4 = private unnamed_addr constant [34 x i8] c"    expose [options] [selection]\0A\00", align 1
@.str.5 = private unnamed_addr constant [78 x i8] c"This command exposes all selected internal signals of a module as additional\0A\00", align 1
@.str.6 = private unnamed_addr constant [10 x i8] c"outputs.\0A\00", align 1
@.str.7 = private unnamed_addr constant [10 x i8] c"    -dff\0A\00", align 1
@.str.8 = private unnamed_addr constant [72 x i8] c"        only consider wires that are directly driven by register cell.\0A\00", align 1
@.str.9 = private unnamed_addr constant [10 x i8] c"    -cut\0A\00", align 1
@.str.10 = private unnamed_addr constant [80 x i8] c"        when exposing a wire, create an input/output pair and cut the internal\0A\00", align 1
@.str.11 = private unnamed_addr constant [35 x i8] c"        signal path at that wire.\0A\00", align 1
@.str.12 = private unnamed_addr constant [12 x i8] c"    -input\0A\00", align 1
@.str.13 = private unnamed_addr constant [80 x i8] c"        when exposing a wire, create an input port and disconnect the internal\0A\00", align 1
@.str.14 = private unnamed_addr constant [17 x i8] c"        driver.\0A\00", align 1
@.str.15 = private unnamed_addr constant [13 x i8] c"    -shared\0A\00", align 1
@.str.16 = private unnamed_addr constant [79 x i8] c"        only expose those signals that are shared among the selected modules.\0A\00", align 1
@.str.17 = private unnamed_addr constant [72 x i8] c"        this is useful for preparing modules for equivalence checking.\0A\00", align 1
@.str.18 = private unnamed_addr constant [12 x i8] c"    -evert\0A\00", align 1
@.str.19 = private unnamed_addr constant [75 x i8] c"        also turn connections to instances of other modules to additional\0A\00", align 1
@.str.20 = private unnamed_addr constant [61 x i8] c"        inputs and outputs and remove the module instances.\0A\00", align 1
@.str.21 = private unnamed_addr constant [16 x i8] c"    -evert-dff\0A\00", align 1
@.str.22 = private unnamed_addr constant [56 x i8] c"        turn flip-flops to sets of inputs and outputs.\0A\00", align 1
@.str.23 = private unnamed_addr constant [22 x i8] c"    -sep <separator>\0A\00", align 1
@.str.24 = private unnamed_addr constant [81 x i8] c"        when creating new wire/port names, the original object name is suffixed\0A\00", align 1
@.str.25 = private unnamed_addr constant [72 x i8] c"        with this separator (default: '.') and the port name or a type\0A\00", align 1
@.str.26 = private unnamed_addr constant [44 x i8] c"        designator for the exposed signal.\0A\00", align 1

; Function Attrs: mustprogress uwtable
define internal void @_ZN12_GLOBAL__N_110ExposePass4helpEv(ptr noundef nonnull align 8 dereferenceable(104) %0) unnamed_addr #4 align 2 {
  %2 = alloca ptr, align 8
  store ptr %0, ptr %2, align 8
  call void (ptr, ...) @_ZN5Yosys3logEPKcz(ptr noundef @.str.3)
  call void (ptr, ...) @_ZN5Yosys3logEPKcz(ptr noundef @.str.4)
  call void (ptr, ...) @_ZN5Yosys3logEPKcz(ptr noundef @.str.3)
  call void (ptr, ...) @_ZN5Yosys3logEPKcz(ptr noundef @.str.5)
  call void (ptr, ...) @_ZN5Yosys3logEPKcz(ptr noundef @.str.6)
  call void (ptr, ...) @_ZN5Yosys3logEPKcz(ptr noundef @.str.3)
  call void (ptr, ...) @_ZN5Yosys3logEPKcz(ptr noundef @.str.7)
  call void (ptr, ...) @_ZN5Yosys3logEPKcz(ptr noundef @.str.8)
  call void (ptr, ...) @_ZN5Yosys3logEPKcz(ptr noundef @.str.3)
  call void (ptr, ...) @_ZN5Yosys3logEPKcz(ptr noundef @.str.9)
  call void (ptr, ...) @_ZN5Yosys3logEPKcz(ptr noundef @.str.10)
  call void (ptr, ...) @_ZN5Yosys3logEPKcz(ptr noundef @.str.11)
  call void (ptr, ...) @_ZN5Yosys3logEPKcz(ptr noundef @.str.3)
  call void (ptr, ...) @_ZN5Yosys3logEPKcz(ptr noundef @.str.12)
  call void (ptr, ...) @_ZN5Yosys3logEPKcz(ptr noundef @.str.13)
  call void (ptr, ...) @_ZN5Yosys3logEPKcz(ptr noundef @.str.14)
  call void (ptr, ...) @_ZN5Yosys3logEPKcz(ptr noundef @.str.3)
  call void (ptr, ...) @_ZN5Yosys3logEPKcz(ptr noundef @.str.15)
  call void (ptr, ...) @_ZN5Yosys3logEPKcz(ptr noundef @.str.16)
  call void (ptr, ...) @_ZN5Yosys3logEPKcz(ptr noundef @.str.17)
  call void (ptr, ...) @_ZN5Yosys3logEPKcz(ptr noundef @.str.3)
  call void (ptr, ...) @_ZN5Yosys3logEPKcz(ptr noundef @.str.18)
  call void (ptr, ...) @_ZN5Yosys3logEPKcz(ptr noundef @.str.19)
  call void (ptr, ...) @_ZN5Yosys3logEPKcz(ptr noundef @.str.20)
  call void (ptr, ...) @_ZN5Yosys3logEPKcz(ptr noundef @.str.3)
  call void (ptr, ...) @_ZN5Yosys3logEPKcz(ptr noundef @.str.21)
  call void (ptr, ...) @_ZN5Yosys3logEPKcz(ptr noundef @.str.22)
  call void (ptr, ...) @_ZN5Yosys3logEPKcz(ptr noundef @.str.3)
  call void (ptr, ...) @_ZN5Yosys3logEPKcz(ptr noundef @.str.23)
  call void (ptr, ...) @_ZN5Yosys3logEPKcz(ptr noundef @.str.24)
  call void (ptr, ...) @_ZN5Yosys3logEPKcz(ptr noundef @.str.25)
  call void (ptr, ...) @_ZN5Yosys3logEPKcz(ptr noundef @.str.26)
  call void (ptr, ...) @_ZN5Yosys3logEPKcz(ptr noundef @.str.3)
  ret void
}